target datalayout = "e-m:e-p270:32:32-p271:32:32-p272:64:64-i64:64-i128:128-f80:128-n8:16:32:64-S128"
target triple = "x86_64-pc-linux-gnu"

%struct.jv = type { i8, i8, i16, i32, %union.anon }
%union.anon = type { ptr }

; Function Attrs: nounwind uwtable
define dso_local i32 @jv_identical(i64 %0, ptr %1, i64 %2, ptr %3) #0 {
  %5 = alloca %struct.jv, align 8
  %6 = alloca %struct.jv, align 8
  %7 = alloca i32, align 4
  %8 = getelementptr inbounds nuw { i64, ptr }, ptr %5, i32 0, i32 0
  store i64 %0, ptr %8, align 8
  %9 = getelementptr inbounds nuw { i64, ptr }, ptr %5, i32 0, i32 1
  store ptr %1, ptr %9, align 8
  %10 = getelementptr inbounds nuw { i64, ptr }, ptr %6, i32 0, i32 0
  store i64 %2, ptr %10, align 8
  %11 = getelementptr inbounds nuw { i64, ptr }, ptr %6, i32 0, i32 1
  store ptr %3, ptr %11, align 8
  call void @llvm.lifetime.start.p0(i64 4, ptr %7) #11
  %12 = getelementptr inbounds nuw %struct.jv, ptr %5, i32 0, i32 0
  %13 = load i8, ptr %12, align 8, !tbaa !4
  %14 = zext i8 %13 to i32
  %15 = getelementptr inbounds nuw %struct.jv, ptr %6, i32 0, i32 0
  %16 = load i8, ptr %15, align 8, !tbaa !4
  %17 = zext i8 %16 to i32
  %18 = icmp ne i32 %14, %17
  br i1 %18, label %33, label %19

19:                                               ; preds = %4
  %20 = getelementptr inbounds nuw %struct.jv, ptr %5, i32 0, i32 2
  %21 = load i16, ptr %20, align 2, !tbaa !18
  %22 = zext i16 %21 to i32
  %23 = getelementptr inbounds nuw %struct.jv, ptr %6, i32 0, i32 2
  %24 = load i16, ptr %23, align 2, !tbaa !18
  %25 = zext i16 %24 to i32
  %26 = icmp ne i32 %22, %25
  br i1 %26, label %33, label %27

27:                                               ; preds = %19
  %28 = getelementptr inbounds nuw %struct.jv, ptr %5, i32 0, i32 3
  %29 = load i32, ptr %28, align 4, !tbaa !19
  %30 = getelementptr inbounds nuw %struct.jv, ptr %6, i32 0, i32 3
  %31 = load i32, ptr %30, align 4, !tbaa !19
  %32 = icmp ne i32 %29, %31
  br i1 %32, label %33, label %34

33:                                               ; preds = %27, %19, %4
  store i32 0, ptr %7, align 4, !tbaa !10
  br label %54

34:                                               ; preds = %27
  %35 = getelementptr inbounds nuw %struct.jv, ptr %5, i32 0, i32 0
  %36 = load i8, ptr %35, align 8, !tbaa !4
  %37 = zext i8 %36 to i32
  %38 = and i32 %37, 128
  %39 = icmp ne i32 %38, 0
  br i1 %39, label %40, label %47

40:                                               ; preds = %34
  %41 = getelementptr inbounds nuw %struct.jv, ptr %5, i32 0, i32 4
  %42 = load ptr, ptr %41, align 8, !tbaa !12
  %43 = getelementptr inbounds nuw %struct.jv, ptr %6, i32 0, i32 4
  %44 = load ptr, ptr %43, align 8, !tbaa !12
  %45 = icmp eq ptr %42, %44
  %46 = zext i1 %45 to i32
  store i32 %46, ptr %7, align 4, !tbaa !10
  br label %53

47:                                               ; preds = %34
  %48 = getelementptr inbounds nuw %struct.jv, ptr %5, i32 0, i32 4
  %49 = getelementptr inbounds nuw %struct.jv, ptr %6, i32 0, i32 4
  %50 = call i32 @memcmp(ptr noundef %48, ptr noundef %49, i64 noundef 8) #13
  %51 = icmp eq i32 %50, 0
  %52 = zext i1 %51 to i32
  store i32 %52, ptr %7, align 4, !tbaa !10
  br label %53

53:                                               ; preds = %47, %40
  br label %54

54:                                               ; preds = %53, %33
  %55 = getelementptr inbounds nuw { i64, ptr }, ptr %5, i32 0, i32 0
  %56 = load i64, ptr %55, align 8
  %57 = getelementptr inbounds nuw { i64, ptr }, ptr %5, i32 0, i32 1
  %58 = load ptr, ptr %57, align 8
  call void @jv_free(i64 %56, ptr %58)
  %59 = getelementptr inbounds nuw { i64, ptr }, ptr %6, i32 0, i32 0
  %60 = load i64, ptr %59, align 8
  %61 = getelementptr inbounds nuw { i64, ptr }, ptr %6, i32 0, i32 1
  %62 = load ptr, ptr %61, align 8
  call void @jv_free(i64 %60, ptr %62)
  %63 = load i32, ptr %7, align 4, !tbaa !10
  call void @llvm.lifetime.end.p0(i64 4, ptr %7) #11
  ret i32 %63
}