; Function Attrs: nounwind uwtable
define dso_local range(i32 0, 2) i32 @jv_identical(i64 %0, ptr %1, i64 %2, ptr %3) local_unnamed_addr #2 {
  %.sroa.08.0.extract.trunc = trunc i64 %0 to i8
  %.sroa.0.0.extract.trunc = trunc i64 %2 to i8
  %.not = icmp eq i8 %.sroa.08.0.extract.trunc, %.sroa.0.0.extract.trunc
  %.unshifted = xor i64 %2, %0
  %5 = icmp ult i64 %.unshifted, 65536
  %or.cond15 = and i1 %.not, %5
  %.not5 = icmp eq ptr %1, %3
  %spec.select = select i1 %or.cond15, i1 %.not5, i1 false
  %.0 = zext i1 %spec.select to i32
  tail call void @jv_free(i64 %0, ptr %1)
  tail call void @jv_free(i64 %2, ptr %3)
  ret i32 %.0
}